target datalayout = "e-m:e-p270:32:32-p271:32:32-p272:64:64-i64:64-i128:128-f80:128-n8:16:32:64-S128"
target triple = "x86_64-pc-linux-gnu"

%struct.cbuf = type { %union.pthread_mutex_t, i32, i32, i32, i32, i32, i32, i32, i32, i32, i32, ptr }
%union.pthread_mutex_t = type { %struct.__pthread_mutex_s }
%struct.__pthread_mutex_s = type { i32, i32, i32, i32, i32, i16, i16, %struct.__pthread_internal_list }
%struct.__pthread_internal_list = type { ptr, ptr }

; Function Attrs: nounwind uwtable
define internal i32 @cbuf_find_replay_line(ptr noundef %0, i32 noundef %1, ptr noundef %2, ptr noundef %3) #0 {
  %5 = alloca i32, align 4
  %6 = alloca ptr, align 8
  %7 = alloca i32, align 4
  %8 = alloca ptr, align 8
  %9 = alloca ptr, align 8
  %10 = alloca i32, align 4
  %11 = alloca i32, align 4
  %12 = alloca i32, align 4
  %13 = alloca i32, align 4
  %14 = alloca i32, align 4
  %15 = alloca i32, align 4
  store ptr %0, ptr %6, align 8
  store i32 %1, ptr %7, align 4
  store ptr %2, ptr %8, align 8
  store ptr %3, ptr %9, align 8
  call void @llvm.lifetime.start.p0(i64 4, ptr %10) #8
  call void @llvm.lifetime.start.p0(i64 4, ptr %11) #8
  call void @llvm.lifetime.start.p0(i64 4, ptr %12) #8
  call void @llvm.lifetime.start.p0(i64 4, ptr %13) #8
  call void @llvm.lifetime.start.p0(i64 4, ptr %14) #8
  store i32 0, ptr %13, align 4
  store i32 0, ptr %12, align 4
  store i32 0, ptr %11, align 4
  %16 = load ptr, ptr %8, align 8
  %17 = load i32, ptr %16, align 4
  store i32 %17, ptr %14, align 4
  %18 = load ptr, ptr %8, align 8
  store i32 0, ptr %18, align 4
  %19 = load ptr, ptr %9, align 8
  %20 = icmp ne ptr %19, null
  br i1 %20, label %21, label %23

21:                                               ; preds = %4
  %22 = load ptr, ptr %9, align 8
  store i32 0, ptr %22, align 4
  br label %23

23:                                               ; preds = %21, %4
  %24 = load i32, ptr %14, align 4
  %25 = icmp eq i32 %24, 0
  br i1 %25, label %32, label %26

26:                                               ; preds = %23
  %27 = load i32, ptr %14, align 4
  %28 = icmp sle i32 %27, -1
  br i1 %28, label %29, label %33

29:                                               ; preds = %26
  %30 = load i32, ptr %7, align 4
  %31 = icmp sle i32 %30, 0
  br i1 %31, label %32, label %33

32:                                               ; preds = %29, %23
  store i32 0, ptr %5, align 4
  store i32 1, ptr %15, align 4
  br label %173

33:                                               ; preds = %29, %26
  %34 = load ptr, ptr %6, align 8
  %35 = getelementptr inbounds nuw %struct.cbuf, ptr %34, i32 0, i32 9
  %36 = load i32, ptr %35, align 8
  %37 = load ptr, ptr %6, align 8
  %38 = getelementptr inbounds nuw %struct.cbuf, ptr %37, i32 0, i32 10
  %39 = load i32, ptr %38, align 4
  %40 = icmp eq i32 %36, %39
  br i1 %40, label %41, label %42

41:                                               ; preds = %33
  store i32 0, ptr %5, align 4
  store i32 1, ptr %15, align 4
  br label %173

42:                                               ; preds = %33
  %43 = load i32, ptr %14, align 4
  %44 = icmp sgt i32 %43, 0
  br i1 %44, label %45, label %46

45:                                               ; preds = %42
  store i32 -1, ptr %7, align 4
  br label %49

46:                                               ; preds = %42
  %47 = load i32, ptr %7, align 4
  %48 = add nsw i32 %47, 1
  store i32 %48, ptr %7, align 4
  br label %49

49:                                               ; preds = %46, %45
  %50 = load ptr, ptr %6, align 8
  %51 = getelementptr inbounds nuw %struct.cbuf, ptr %50, i32 0, i32 11
  %52 = load ptr, ptr %51, align 8
  %53 = load ptr, ptr %6, align 8
  %54 = getelementptr inbounds nuw %struct.cbuf, ptr %53, i32 0, i32 9
  %55 = load i32, ptr %54, align 8
  %56 = load ptr, ptr %6, align 8
  %57 = getelementptr inbounds nuw %struct.cbuf, ptr %56, i32 0, i32 4
  %58 = load i32, ptr %57, align 4
  %59 = add nsw i32 %55, %58
  %60 = load ptr, ptr %6, align 8
  %61 = getelementptr inbounds nuw %struct.cbuf, ptr %60, i32 0, i32 4
  %62 = load i32, ptr %61, align 4
  %63 = add nsw i32 %62, 1
  %64 = srem i32 %59, %63
  %65 = sext i32 %64 to i64
  %66 = getelementptr inbounds i8, ptr %52, i64 %65
  %67 = load i8, ptr %66, align 1
  %68 = zext i8 %67 to i32
  %69 = icmp ne i32 %68, 10
  br i1 %69, label %70, label %78

70:                                               ; preds = %49
  %71 = load ptr, ptr %9, align 8
  %72 = icmp ne ptr %71, null
  br i1 %72, label %73, label %75

73:                                               ; preds = %70
  %74 = load ptr, ptr %9, align 8
  store i32 1, ptr %74, align 4
  br label %75

75:                                               ; preds = %73, %70
  %76 = load i32, ptr %7, align 4
  %77 = add nsw i32 %76, -1
  store i32 %77, ptr %7, align 4
  br label %87

78:                                               ; preds = %49
  %79 = load i32, ptr %14, align 4
  %80 = icmp sgt i32 %79, 0
  br i1 %80, label %81, label %84

81:                                               ; preds = %78
  %82 = load i32, ptr %14, align 4
  %83 = add nsw i32 %82, 1
  store i32 %83, ptr %14, align 4
  br label %84

84:                                               ; preds = %81, %78
  %85 = load i32, ptr %13, align 4
  %86 = add nsw i32 %85, -1
  store i32 %86, ptr %13, align 4
  br label %87

87:                                               ; preds = %84, %75
  %88 = load ptr, ptr %6, align 8
  %89 = getelementptr inbounds nuw %struct.cbuf, ptr %88, i32 0, i32 9
  %90 = load i32, ptr %89, align 8
  store i32 %90, ptr %10, align 4
  br label %91

91:                                               ; preds = %143, %87
  %92 = load i32, ptr %10, align 4
  %93 = load ptr, ptr %6, align 8
  %94 = getelementptr inbounds nuw %struct.cbuf, ptr %93, i32 0, i32 10
  %95 = load i32, ptr %94, align 4
  %96 = icmp ne i32 %92, %95
  br i1 %96, label %97, label %144

97:                                               ; preds = %91
  %98 = load i32, ptr %10, align 4
  %99 = load ptr, ptr %6, align 8
  %100 = getelementptr inbounds nuw %struct.cbuf, ptr %99, i32 0, i32 4
  %101 = load i32, ptr %100, align 4
  %102 = add nsw i32 %98, %101
  %103 = load ptr, ptr %6, align 8
  %104 = getelementptr inbounds nuw %struct.cbuf, ptr %103, i32 0, i32 4
  %105 = load i32, ptr %104, align 4
  %106 = add nsw i32 %105, 1
  %107 = srem i32 %102, %106
  store i32 %107, ptr %10, align 4
  %108 = load i32, ptr %11, align 4
  %109 = add nsw i32 %108, 1
  store i32 %109, ptr %11, align 4
  %110 = load i32, ptr %7, align 4
  %111 = icmp sgt i32 %110, 0
  br i1 %111, label %112, label %115

112:                                              ; preds = %97
  %113 = load i32, ptr %7, align 4
  %114 = add nsw i32 %113, -1
  store i32 %114, ptr %7, align 4
  br label %115

115:                                              ; preds = %112, %97
  %116 = load ptr, ptr %6, align 8
  %117 = getelementptr inbounds nuw %struct.cbuf, ptr %116, i32 0, i32 11
  %118 = load ptr, ptr %117, align 8
  %119 = load i32, ptr %10, align 4
  %120 = sext i32 %119 to i64
  %121 = getelementptr inbounds i8, ptr %118, i64 %120
  %122 = load i8, ptr %121, align 1
  %123 = zext i8 %122 to i32
  %124 = icmp eq i32 %123, 10
  br i1 %124, label %125, label %136

125:                                              ; preds = %115
  %126 = load i32, ptr %14, align 4
  %127 = icmp sgt i32 %126, 0
  br i1 %127, label %128, label %131

128:                                              ; preds = %125
  %129 = load i32, ptr %14, align 4
  %130 = add nsw i32 %129, -1
  store i32 %130, ptr %14, align 4
  br label %131

131:                                              ; preds = %128, %125
  %132 = load i32, ptr %11, align 4
  %133 = sub nsw i32 %132, 1
  store i32 %133, ptr %12, align 4
  %134 = load i32, ptr %13, align 4
  %135 = add nsw i32 %134, 1
  store i32 %135, ptr %13, align 4
  br label %136

136:                                              ; preds = %131, %115
  %137 = load i32, ptr %7, align 4
  %138 = icmp eq i32 %137, 0
  br i1 %138, label %142, label %139

139:                                              ; preds = %136
  %140 = load i32, ptr %14, align 4
  %141 = icmp eq i32 %140, 0
  br i1 %141, label %142, label %143

142:                                              ; preds = %139, %136
  br label %144

143:                                              ; preds = %139
  br label %91, !llvm.loop !11

144:                                              ; preds = %142, %91
  %145 = load ptr, ptr %6, align 8
  %146 = getelementptr inbounds nuw %struct.cbuf, ptr %145, i32 0, i32 7
  %147 = load i32, ptr %146, align 8
  %148 = icmp ne i32 %147, 0
  br i1 %148, label %165, label %149

149:                                              ; preds = %144
  %150 = load i32, ptr %7, align 4
  %151 = icmp sgt i32 %150, 0
  br i1 %151, label %155, label %152

152:                                              ; preds = %149
  %153 = load i32, ptr %14, align 4
  %154 = icmp sgt i32 %153, 0
  br i1 %154, label %155, label %165

155:                                              ; preds = %152, %149
  %156 = load i32, ptr %14, align 4
  %157 = icmp sgt i32 %156, 0
  br i1 %157, label %158, label %161

158:                                              ; preds = %155
  %159 = load i32, ptr %14, align 4
  %160 = add nsw i32 %159, -1
  store i32 %160, ptr %14, align 4
  br label %161

161:                                              ; preds = %158, %155
  %162 = load i32, ptr %11, align 4
  store i32 %162, ptr %12, align 4
  %163 = load i32, ptr %13, align 4
  %164 = add nsw i32 %163, 1
  store i32 %164, ptr %13, align 4
  br label %165

165:                                              ; preds = %161, %152, %144
  %166 = load i32, ptr %14, align 4
  %167 = icmp sgt i32 %166, 0
  br i1 %167, label %168, label %169

168:                                              ; preds = %165
  store i32 0, ptr %5, align 4
  store i32 1, ptr %15, align 4
  br label %173

169:                                              ; preds = %165
  %170 = load i32, ptr %13, align 4
  %171 = load ptr, ptr %8, align 8
  store i32 %170, ptr %171, align 4
  %172 = load i32, ptr %12, align 4
  store i32 %172, ptr %5, align 4
  store i32 1, ptr %15, align 4
  br label %173

173:                                              ; preds = %169, %168, %41, %32
  call void @llvm.lifetime.end.p0(i64 4, ptr %14) #8
  call void @llvm.lifetime.end.p0(i64 4, ptr %13) #8
  call void @llvm.lifetime.end.p0(i64 4, ptr %12) #8
  call void @llvm.lifetime.end.p0(i64 4, ptr %11) #8
  call void @llvm.lifetime.end.p0(i64 4, ptr %10) #8
  %174 = load i32, ptr %5, align 4
  ret i32 %174
}