; Function Attrs: nofree norecurse nosync nounwind memory(read, argmem: readwrite, inaccessiblemem: none) uwtable
define internal fastcc i32 @cbuf_find_replay_line(ptr noundef readonly captures(none) %0, i32 noundef %1, ptr noundef nonnull captures(none) %2, ptr noundef writeonly captures(address_is_null) %3) unnamed_addr #6 {
  %5 = load i32, ptr %2, align 4
  store i32 0, ptr %2, align 4
  %.not = icmp eq ptr %3, null
  br i1 %.not, label %7, label %6

6:                                                ; preds = %4
  store i32 0, ptr %3, align 4
  br label %7

7:                                                ; preds = %6, %4
  %8 = icmp eq i32 %5, 0
  br i1 %8, label %69, label %9

9:                                                ; preds = %7
  %10 = icmp slt i32 %5, 0
  %11 = icmp slt i32 %1, 1
  %or.cond = and i1 %11, %10
  br i1 %or.cond, label %69, label %12

12:                                               ; preds = %9
  %13 = getelementptr inbounds nuw i8, ptr %0, i64 72
  %14 = load i32, ptr %13, align 8
  %15 = getelementptr inbounds nuw i8, ptr %0, i64 76
  %16 = load i32, ptr %15, align 4
  %17 = icmp eq i32 %14, %16
  br i1 %17, label %69, label %18

18:                                               ; preds = %12
  %19 = icmp sgt i32 %5, 0
  %20 = add nsw i32 %1, 1
  %.067 = select i1 %19, i32 -1, i32 %20
  %21 = getelementptr inbounds nuw i8, ptr %0, i64 80
  %22 = load ptr, ptr %21, align 8
  %23 = getelementptr inbounds nuw i8, ptr %0, i64 52
  %24 = load i32, ptr %23, align 4
  %25 = add nsw i32 %24, %14
  %26 = add nsw i32 %24, 1
  %27 = srem i32 %25, %26
  %28 = sext i32 %27 to i64
  %29 = getelementptr inbounds i8, ptr %22, i64 %28
  %30 = load i8, ptr %29, align 1
  %.not75 = icmp eq i8 %30, 10
  br i1 %.not75, label %35, label %31

31:                                               ; preds = %18
  br i1 %.not, label %33, label %32

32:                                               ; preds = %31
  store i32 1, ptr %3, align 4
  %.pre.pre = load i32, ptr %13, align 8
  %.pre86.pre = load i32, ptr %15, align 4
  br label %33

33:                                               ; preds = %32, %31
  %.pre86 = phi i32 [ %.pre86.pre, %32 ], [ %16, %31 ]
  %.pre = phi i32 [ %.pre.pre, %32 ], [ %14, %31 ]
  %34 = add nsw i32 %.067, -1
  br label %37

35:                                               ; preds = %18
  %36 = zext i1 %19 to i32
  %spec.select = add nuw nsw i32 %5, %36
  br label %37

37:                                               ; preds = %35, %33
  %38 = phi i32 [ %.pre86, %33 ], [ %16, %35 ]
  %39 = phi i32 [ %.pre, %33 ], [ %14, %35 ]
  %.168 = phi i32 [ %34, %33 ], [ %.067, %35 ]
  %.054 = phi i32 [ 0, %33 ], [ -1, %35 ]
  %.0 = phi i32 [ %5, %33 ], [ %spec.select, %35 ]
  br label %40

40:                                               ; preds = %41, %37
  %.269 = phi i32 [ %.168, %37 ], [ %spec.select78, %41 ]
  %.065 = phi i32 [ %39, %37 ], [ %45, %41 ]
  %.063 = phi i32 [ 0, %37 ], [ %46, %41 ]
  %.059 = phi i32 [ 0, %37 ], [ %.261, %41 ]
  %.155 = phi i32 [ %.054, %37 ], [ %.357, %41 ]
  %.2 = phi i32 [ %.0, %37 ], [ %.4, %41 ]
  %.not76 = icmp eq i32 %.065, %38
  br i1 %.not76, label %58, label %41

41:                                               ; preds = %40
  %42 = load i32, ptr %23, align 4
  %43 = add nsw i32 %42, %.065
  %44 = add nsw i32 %42, 1
  %45 = srem i32 %43, %44
  %46 = add nuw nsw i32 %.063, 1
  %47 = icmp sgt i32 %.269, 0
  %48 = sext i1 %47 to i32
  %spec.select78 = add nsw i32 %.269, %48
  %49 = load ptr, ptr %21, align 8
  %50 = sext i32 %45 to i64
  %51 = getelementptr inbounds i8, ptr %49, i64 %50
  %52 = load i8, ptr %51, align 1
  %53 = icmp eq i8 %52, 10
  %54 = icmp sgt i32 %.2, 0
  %.261 = select i1 %53, i32 %.063, i32 %.059
  %55 = zext i1 %53 to i32
  %.357 = add nsw i32 %.155, %55
  %narrow = select i1 %53, i1 %54, i1 false
  %spec.select79 = sext i1 %narrow to i32
  %.4 = add nsw i32 %.2, %spec.select79
  %56 = icmp eq i32 %spec.select78, 0
  %57 = icmp eq i32 %.4, 0
  %or.cond3 = select i1 %56, i1 true, i1 %57
  br i1 %or.cond3, label %58, label %40, !llvm.loop !11

58:                                               ; preds = %41, %40
  %.370 = phi i32 [ %spec.select78, %41 ], [ %.269, %40 ]
  %.164 = phi i32 [ %46, %41 ], [ %.063, %40 ]
  %.160 = phi i32 [ %.261, %41 ], [ %.059, %40 ]
  %.256 = phi i32 [ %.357, %41 ], [ %.155, %40 ]
  %.3 = phi i32 [ %.4, %41 ], [ %.2, %40 ]
  %59 = getelementptr inbounds nuw i8, ptr %0, i64 64
  %60 = load i32, ptr %59, align 8
  %.not77 = icmp eq i32 %60, 0
  br i1 %.not77, label %61, label %67

61:                                               ; preds = %58
  %62 = icmp sgt i32 %.370, 0
  %63 = icmp sgt i32 %.3, 0
  %or.cond5 = select i1 %62, i1 true, i1 %63
  br i1 %or.cond5, label %64, label %.thread

64:                                               ; preds = %61
  %65 = sext i1 %63 to i32
  %spec.select80 = add nsw i32 %.3, %65
  %66 = add nsw i32 %.256, 1
  br label %67

67:                                               ; preds = %64, %58
  %.362 = phi i32 [ %.160, %58 ], [ %.164, %64 ]
  %.458 = phi i32 [ %.256, %58 ], [ %66, %64 ]
  %.6 = phi i32 [ %.3, %58 ], [ %spec.select80, %64 ]
  %68 = icmp sgt i32 %.6, 0
  br i1 %68, label %69, label %.thread

.thread:                                          ; preds = %61, %67
  %.45885 = phi i32 [ %.458, %67 ], [ %.256, %61 ]
  %.36284 = phi i32 [ %.362, %67 ], [ %.160, %61 ]
  store i32 %.45885, ptr %2, align 4
  br label %69

69:                                               ; preds = %67, %12, %7, %9, %.thread
  %.066 = phi i32 [ %.36284, %.thread ], [ 0, %9 ], [ 0, %7 ], [ 0, %12 ], [ 0, %67 ]
  ret i32 %.066
}